; Function Attrs: cold nounwind optsize uwtable
define internal i32 @query_formats(ptr noundef %0, ptr noundef %1, ptr noundef %2) #0 {
  %4 = alloca [2 x i32], align 4
  %5 = getelementptr inbounds nuw i8, ptr %0, i64 72
  %6 = load ptr, ptr %5, align 8, !tbaa !4
  call void @llvm.lifetime.start.p0(i64 8, ptr nonnull %4) #10
  %7 = getelementptr inbounds nuw i8, ptr %6, i64 40
  %8 = load i32, ptr %7, align 8, !tbaa !28
  store i32 %8, ptr %4, align 4, !tbaa !42
  %9 = getelementptr inbounds nuw i8, ptr %4, i64 4
  store i32 -1, ptr %9, align 4, !tbaa !42
  %10 = tail call i32 @ff_set_common_formats_from_list2(ptr noundef %0, ptr noundef %1, ptr noundef %2, ptr noundef nonnull @query_formats.sample_fmts) #10
  %11 = icmp slt i32 %10, 0
  br i1 %11, label %17, label %12

12:                                               ; preds = %3
  %13 = tail call i32 @ff_set_common_channel_layouts_from_list2(ptr noundef nonnull %0, ptr noundef %1, ptr noundef %2, ptr noundef nonnull @query_formats.chlayouts) #10
  %14 = icmp slt i32 %13, 0
  br i1 %14, label %17, label %15

15:                                               ; preds = %12
  %16 = call i32 @ff_set_common_samplerates_from_list2(ptr noundef nonnull %0, ptr noundef %1, ptr noundef %2, ptr noundef nonnull %4) #10
  br label %17

17:                                               ; preds = %12, %3, %15
  %.0 = phi i32 [ %16, %15 ], [ %10, %3 ], [ %13, %12 ]
  call void @llvm.lifetime.end.p0(i64 8, ptr nonnull %4) #10
  ret i32 %.0
}